target datalayout = "e-m:e-p270:32:32-p271:32:32-p272:64:64-i64:64-i128:128-f80:128-n8:16:32:64-S128"
target triple = "x86_64-pc-linux-gnu"

%"class.llvm::SmallVectorBase" = type { ptr, i32, i32 }
%"class.llvm::LiveRegMatrix" = type { %"class.llvm::MachineFunctionPass", ptr, ptr, ptr, i32, %"class.llvm::RecyclingAllocator", %"class.llvm::LiveIntervalUnion::Array", %"class.std::unique_ptr", i32, i32, %"class.llvm::BitVector" }
%"class.llvm::MachineFunctionPass" = type { %"class.llvm::FunctionPass.base", %"class.llvm::MachineFunctionProperties", %"class.llvm::MachineFunctionProperties", %"class.llvm::MachineFunctionProperties" }
%"class.llvm::FunctionPass.base" = type { %"class.llvm::Pass.base" }
%"class.llvm::Pass.base" = type <{ ptr, ptr, ptr, i32 }>
%"class.llvm::MachineFunctionProperties" = type { %"class.std::bitset" }
%"class.std::bitset" = type { %"struct.std::_Base_bitset" }
%"struct.std::_Base_bitset" = type { i64 }
%"class.llvm::RecyclingAllocator" = type { %"class.llvm::Recycler", %"class.llvm::BumpPtrAllocatorImpl" }
%"class.llvm::Recycler" = type { ptr }
%"class.llvm::BumpPtrAllocatorImpl" = type { ptr, ptr, %"class.llvm::SmallVector", %"class.llvm::SmallVector.6", i64, i64 }
%"class.llvm::SmallVector" = type { %"class.llvm::SmallVectorImpl", %"struct.llvm::SmallVectorStorage" }
%"class.llvm::SmallVectorImpl" = type { %"class.llvm::SmallVectorTemplateBase" }
%"class.llvm::SmallVectorTemplateBase" = type { %"class.llvm::SmallVectorTemplateCommon" }
%"class.llvm::SmallVectorTemplateCommon" = type { %"class.llvm::SmallVectorBase" }
%"struct.llvm::SmallVectorStorage" = type { [32 x i8] }
%"class.llvm::SmallVector.6" = type { %"class.llvm::SmallVectorImpl.7" }
%"class.llvm::SmallVectorImpl.7" = type { %"class.llvm::SmallVectorTemplateBase.8" }
%"class.llvm::SmallVectorTemplateBase.8" = type { %"class.llvm::SmallVectorTemplateCommon.9" }
%"class.llvm::SmallVectorTemplateCommon.9" = type { %"class.llvm::SmallVectorBase" }
%"class.llvm::LiveIntervalUnion::Array" = type { i32, ptr }
%"class.std::unique_ptr" = type { %"struct.std::__uniq_ptr_data" }
%"struct.std::__uniq_ptr_data" = type { %"class.std::__uniq_ptr_impl" }
%"class.std::__uniq_ptr_impl" = type { %"class.std::tuple" }
%"class.std::tuple" = type { %"struct.std::_Tuple_impl" }
%"struct.std::_Tuple_impl" = type { %"struct.std::_Head_base.12" }
%"struct.std::_Head_base.12" = type { ptr }
%"class.llvm::BitVector" = type <{ %"class.llvm::SmallVector.13", i32, [4 x i8] }>
%"class.llvm::SmallVector.13" = type { %"class.llvm::SmallVectorImpl.14", %"struct.llvm::SmallVectorStorage.17" }
%"class.llvm::SmallVectorImpl.14" = type { %"class.llvm::SmallVectorTemplateBase.15" }
%"class.llvm::SmallVectorTemplateBase.15" = type { %"class.llvm::SmallVectorTemplateCommon.16" }
%"class.llvm::SmallVectorTemplateCommon.16" = type { %"class.llvm::SmallVectorBase" }
%"struct.llvm::SmallVectorStorage.17" = type { [48 x i8] }
%"class.llvm::LiveIntervalUnion" = type { i32, %"class.llvm::IntervalMap" }
%"class.llvm::IntervalMap" = type { %union.anon.181, i32, i32, ptr }
%union.anon.181 = type { %"class.llvm::IntervalMapImpl::LeafNode" }
%"class.llvm::IntervalMapImpl::LeafNode" = type { %"class.llvm::IntervalMapImpl::NodeBase" }
%"class.llvm::IntervalMapImpl::NodeBase" = type { [8 x %"struct.std::pair"], [8 x ptr] }
%"struct.std::pair" = type { %"class.llvm::SlotIndex", %"class.llvm::SlotIndex" }
%"class.llvm::SlotIndex" = type { %"class.llvm::PointerIntPair" }
%"class.llvm::PointerIntPair" = type { %"struct.llvm::detail::PunnedPointer" }
%"struct.llvm::detail::PunnedPointer" = type { [8 x i8] }

; Function Attrs: mustprogress nounwind uwtable
define linkonce_odr hidden noundef nonnull align 8 dereferenceable(8) ptr @_ZN4llvm6detail13PunnedPointerIPNS_14IndexListEntryEEaSEl(ptr noundef nonnull align 8 dereferenceable(8) %0, i64 noundef %1) #1 comdat align 2 {
  %3 = alloca ptr, align 8
  %4 = alloca i64, align 8
  store ptr %0, ptr %3, align 8
  store i64 %1, ptr %4, align 8
  %5 = load ptr, ptr %3, align 8
  %6 = getelementptr inbounds nuw %"struct.llvm::detail::PunnedPointer", ptr %5, i32 0, i32 0
  %7 = getelementptr inbounds [8 x i8], ptr %6, i64 0, i64 0
  call void @llvm.memcpy.p0.p0.i64(ptr align 8 %7, ptr align 8 %4, i64 8, i1 false)
  ret ptr %5
}

; Function Attrs: mustprogress nounwind uwtable
define linkonce_odr hidden void @_ZN4llvm6detail13PunnedPointerIPNS_14IndexListEntryEEC2El(ptr noundef nonnull align 8 dereferenceable(8) %0, i64 noundef %1) unnamed_addr #1 comdat align 2 {
  %3 = alloca ptr, align 8
  %4 = alloca i64, align 8
  store ptr %0, ptr %3, align 8
  store i64 %1, ptr %4, align 8
  %5 = load ptr, ptr %3, align 8
  %6 = load i64, ptr %4, align 8
  %7 = call noundef nonnull align 8 dereferenceable(8) ptr @_ZN4llvm6detail13PunnedPointerIPNS_14IndexListEntryEEaSEl(ptr noundef nonnull align 8 dereferenceable(8) %5, i64 noundef %6)
  ret void
}

; Function Attrs: mustprogress nounwind uwtable
define linkonce_odr hidden void @_ZN4llvm14PointerIntPairIPNS_14IndexListEntryELj2EjNS_21PointerLikeTypeTraitsIS2_EENS_18PointerIntPairInfoIS2_Lj2ES4_EEEC2Ev(ptr noundef nonnull align 8 dereferenceable(8) %0) unnamed_addr #1 comdat align 2 {
  %2 = alloca ptr, align 8
  store ptr %0, ptr %2, align 8
  %3 = load ptr, ptr %2, align 8
  %4 = getelementptr inbounds nuw %"class.llvm::PointerIntPair", ptr %3, i32 0, i32 0
  call void @_ZN4llvm6detail13PunnedPointerIPNS_14IndexListEntryEEC2El(ptr noundef nonnull align 8 dereferenceable(8) %4, i64 noundef 0)
  ret void
}

; Function Attrs: mustprogress nounwind uwtable
define linkonce_odr hidden void @_ZN4llvm9SlotIndexC2Ev(ptr noundef nonnull align 8 dereferenceable(8) %0) unnamed_addr #1 comdat align 2 {
  %2 = alloca ptr, align 8
  store ptr %0, ptr %2, align 8
  %3 = load ptr, ptr %2, align 8
  %4 = getelementptr inbounds nuw %"class.llvm::SlotIndex", ptr %3, i32 0, i32 0
  call void @_ZN4llvm14PointerIntPairIPNS_14IndexListEntryELj2EjNS_21PointerLikeTypeTraitsIS2_EENS_18PointerIntPairInfoIS2_Lj2ES4_EEEC2Ev(ptr noundef nonnull align 8 dereferenceable(8) %4)
  ret void
}

; Function Attrs: mustprogress nounwind uwtable
define linkonce_odr hidden void @_ZNSt4pairIN4llvm9SlotIndexES1_EC2IS1_S1_TnNSt9enable_ifIXsr6__and_ISt37__is_implicitly_default_constructibleIT_ES5_IT0_EEE5valueEbE4typeELb1EEEv(ptr noundef nonnull align 8 dereferenceable(16) %0) unnamed_addr #1 comdat align 2 {
  %2 = alloca ptr, align 8
  store ptr %0, ptr %2, align 8
  %3 = load ptr, ptr %2, align 8
  %4 = getelementptr inbounds nuw %"struct.std::pair", ptr %3, i32 0, i32 0
  call void @llvm.memset.p0.i64(ptr align 8 %4, i8 0, i64 8, i1 false)
  call void @_ZN4llvm9SlotIndexC2Ev(ptr noundef nonnull align 8 dereferenceable(8) %4)
  %5 = getelementptr inbounds nuw %"struct.std::pair", ptr %3, i32 0, i32 1
  call void @llvm.memset.p0.i64(ptr align 8 %5, i8 0, i64 8, i1 false)
  call void @_ZN4llvm9SlotIndexC2Ev(ptr noundef nonnull align 8 dereferenceable(8) %5)
  ret void
}

; Function Attrs: mustprogress nounwind uwtable
define linkonce_odr hidden void @_ZN4llvm15IntervalMapImpl8NodeBaseISt4pairINS_9SlotIndexES3_EPKNS_12LiveIntervalELj8EEC2Ev(ptr noundef nonnull align 8 dereferenceable(192) %0) unnamed_addr #1 comdat align 2 {
  %2 = alloca ptr, align 8
  store ptr %0, ptr %2, align 8
  %3 = load ptr, ptr %2, align 8
  %4 = getelementptr inbounds nuw %"class.llvm::IntervalMapImpl::NodeBase", ptr %3, i32 0, i32 0
  %5 = getelementptr inbounds [8 x %"struct.std::pair"], ptr %4, i32 0, i32 0
  %6 = getelementptr inbounds %"struct.std::pair", ptr %5, i64 8
  br label %7

7:                                                ; preds = %7, %1
  %8 = phi ptr [ %5, %1 ], [ %9, %7 ]
  call void @_ZNSt4pairIN4llvm9SlotIndexES1_EC2IS1_S1_TnNSt9enable_ifIXsr6__and_ISt37__is_implicitly_default_constructibleIT_ES5_IT0_EEE5valueEbE4typeELb1EEEv(ptr noundef nonnull align 8 dereferenceable(16) %8)
  %9 = getelementptr inbounds %"struct.std::pair", ptr %8, i64 1
  %10 = icmp eq ptr %9, %6
  br i1 %10, label %11, label %7

11:                                               ; preds = %7
  ret void
}

; Function Attrs: mustprogress nounwind uwtable
define linkonce_odr hidden void @_ZN4llvm15IntervalMapImpl8LeafNodeINS_9SlotIndexEPKNS_12LiveIntervalELj8ENS_15IntervalMapInfoIS2_EEEC2Ev(ptr noundef nonnull align 8 dereferenceable(192) %0) unnamed_addr #1 comdat align 2 {
  %2 = alloca ptr, align 8
  store ptr %0, ptr %2, align 8
  %3 = load ptr, ptr %2, align 8
  call void @_ZN4llvm15IntervalMapImpl8NodeBaseISt4pairINS_9SlotIndexES3_EPKNS_12LiveIntervalELj8EEC2Ev(ptr noundef nonnull align 8 dereferenceable(192) %3)
  ret void
}

; Function Attrs: mustprogress nounwind uwtable
define linkonce_odr hidden noundef nonnull align 8 dereferenceable(192) ptr @_ZN4llvm11IntervalMapINS_9SlotIndexEPKNS_12LiveIntervalELj8ENS_15IntervalMapInfoIS1_EEE8rootLeafEv(ptr noundef nonnull align 8 dereferenceable(208) %0) #1 comdat align 2 {
  %2 = alloca ptr, align 8
  store ptr %0, ptr %2, align 8
  %3 = load ptr, ptr %2, align 8
  %4 = getelementptr inbounds nuw %"class.llvm::IntervalMap", ptr %3, i32 0, i32 0
  ret ptr %4
}

; Function Attrs: mustprogress nounwind uwtable
define linkonce_odr hidden noundef nonnull align 8 dereferenceable(184) ptr @_ZN4llvm11IntervalMapINS_9SlotIndexEPKNS_12LiveIntervalELj8ENS_15IntervalMapInfoIS1_EEE14rootBranchDataEv(ptr noundef nonnull align 8 dereferenceable(208) %0) #1 comdat align 2 {
  %2 = alloca ptr, align 8
  store ptr %0, ptr %2, align 8
  %3 = load ptr, ptr %2, align 8
  %4 = getelementptr inbounds nuw %"class.llvm::IntervalMap", ptr %3, i32 0, i32 0
  ret ptr %4
}

; Function Attrs: mustprogress nounwind uwtable
define linkonce_odr hidden void @_ZN4llvm11IntervalMapINS_9SlotIndexEPKNS_12LiveIntervalELj8ENS_15IntervalMapInfoIS1_EEE16switchRootToLeafEv(ptr noundef nonnull align 8 dereferenceable(208) %0) #1 comdat align 2 {
  %2 = alloca ptr, align 8
  store ptr %0, ptr %2, align 8
  %3 = load ptr, ptr %2, align 8
  %4 = call noundef nonnull align 8 dereferenceable(184) ptr @_ZN4llvm11IntervalMapINS_9SlotIndexEPKNS_12LiveIntervalELj8ENS_15IntervalMapInfoIS1_EEE14rootBranchDataEv(ptr noundef nonnull align 8 dereferenceable(208) %3)
  %5 = getelementptr inbounds nuw %"class.llvm::IntervalMap", ptr %3, i32 0, i32 1
  store i32 0, ptr %5, align 8
  %6 = call noundef nonnull align 8 dereferenceable(192) ptr @_ZN4llvm11IntervalMapINS_9SlotIndexEPKNS_12LiveIntervalELj8ENS_15IntervalMapInfoIS1_EEE8rootLeafEv(ptr noundef nonnull align 8 dereferenceable(208) %3)
  call void @llvm.memset.p0.i64(ptr align 8 %6, i8 0, i64 192, i1 false)
  call void @_ZN4llvm15IntervalMapImpl8LeafNodeINS_9SlotIndexEPKNS_12LiveIntervalELj8ENS_15IntervalMapInfoIS2_EEEC2Ev(ptr noundef nonnull align 8 dereferenceable(192) %6)
  ret void
}

; Function Attrs: mustprogress nounwind uwtable
define linkonce_odr hidden noundef zeroext i1 @_ZNK4llvm11IntervalMapINS_9SlotIndexEPKNS_12LiveIntervalELj8ENS_15IntervalMapInfoIS1_EEE8branchedEv(ptr noundef nonnull align 8 dereferenceable(208) %0) #1 comdat align 2 {
  %2 = alloca ptr, align 8
  store ptr %0, ptr %2, align 8
  %3 = load ptr, ptr %2, align 8
  %4 = getelementptr inbounds nuw %"class.llvm::IntervalMap", ptr %3, i32 0, i32 1
  %5 = load i32, ptr %4, align 8
  %6 = icmp ugt i32 %5, 0
  ret i1 %6
}

; Function Attrs: mustprogress nounwind uwtable
define linkonce_odr void @_ZN4llvm11IntervalMapINS_9SlotIndexEPKNS_12LiveIntervalELj8ENS_15IntervalMapInfoIS1_EEE5clearEv(ptr noundef nonnull align 8 dereferenceable(208) %0) #1 comdat align 2 {
  %2 = alloca ptr, align 8
  %3 = alloca { i64, i64 }, align 8
  store ptr %0, ptr %2, align 8
  %4 = load ptr, ptr %2, align 8
  %5 = call noundef zeroext i1 @_ZNK4llvm11IntervalMapINS_9SlotIndexEPKNS_12LiveIntervalELj8ENS_15IntervalMapInfoIS1_EEE8branchedEv(ptr noundef nonnull align 8 dereferenceable(208) %4)
  br i1 %5, label %6, label %11

6:                                                ; preds = %1
  store { i64, i64 } { i64 ptrtoint (ptr @_ZN4llvm11IntervalMapINS_9SlotIndexEPKNS_12LiveIntervalELj8ENS_15IntervalMapInfoIS1_EEE10deleteNodeENS_15IntervalMapImpl7NodeRefEj to i64), i64 0 }, ptr %3, align 8
  %7 = getelementptr inbounds nuw { i64, i64 }, ptr %3, i32 0, i32 0
  %8 = load i64, ptr %7, align 8
  %9 = getelementptr inbounds nuw { i64, i64 }, ptr %3, i32 0, i32 1
  %10 = load i64, ptr %9, align 8
  call void @_ZN4llvm11IntervalMapINS_9SlotIndexEPKNS_12LiveIntervalELj8ENS_15IntervalMapInfoIS1_EEE10visitNodesEMS7_FvNS_15IntervalMapImpl7NodeRefEjE(ptr noundef nonnull align 8 dereferenceable(208) %4, i64 %8, i64 %10)
  call void @_ZN4llvm11IntervalMapINS_9SlotIndexEPKNS_12LiveIntervalELj8ENS_15IntervalMapInfoIS1_EEE16switchRootToLeafEv(ptr noundef nonnull align 8 dereferenceable(208) %4)
  br label %11

11:                                               ; preds = %6, %1
  %12 = getelementptr inbounds nuw %"class.llvm::IntervalMap", ptr %4, i32 0, i32 2
  store i32 0, ptr %12, align 4
  ret void
}

; Function Attrs: mustprogress nounwind uwtable
define linkonce_odr hidden void @_ZN4llvm17LiveIntervalUnion5clearEv(ptr noundef nonnull align 8 dereferenceable(216) %0) #1 comdat align 2 {
  %2 = alloca ptr, align 8
  store ptr %0, ptr %2, align 8
  %3 = load ptr, ptr %2, align 8
  %4 = getelementptr inbounds nuw %"class.llvm::LiveIntervalUnion", ptr %3, i32 0, i32 1
  call void @_ZN4llvm11IntervalMapINS_9SlotIndexEPKNS_12LiveIntervalELj8ENS_15IntervalMapInfoIS1_EEE5clearEv(ptr noundef nonnull align 8 dereferenceable(208) %4)
  %5 = getelementptr inbounds nuw %"class.llvm::LiveIntervalUnion", ptr %3, i32 0, i32 0
  %6 = load i32, ptr %5, align 8
  %7 = add i32 %6, 1
  store i32 %7, ptr %5, align 8
  ret void
}

; Function Attrs: mustprogress nounwind uwtable
define linkonce_odr hidden noundef nonnull align 8 dereferenceable(216) ptr @_ZN4llvm17LiveIntervalUnion5ArrayixEj(ptr noundef nonnull align 8 dereferenceable(16) %0, i32 noundef %1) #1 comdat align 2 {
  %3 = alloca ptr, align 8
  %4 = alloca i32, align 4
  store ptr %0, ptr %3, align 8
  store i32 %1, ptr %4, align 4
  %5 = load ptr, ptr %3, align 8
  %6 = getelementptr inbounds nuw %"class.llvm::LiveIntervalUnion::Array", ptr %5, i32 0, i32 1
  %7 = load ptr, ptr %6, align 8
  %8 = load i32, ptr %4, align 4
  %9 = zext i32 %8 to i64
  %10 = getelementptr inbounds %"class.llvm::LiveIntervalUnion", ptr %7, i64 %9
  ret ptr %10
}

; Function Attrs: mustprogress nounwind uwtable
define linkonce_odr hidden noundef i32 @_ZNK4llvm17LiveIntervalUnion5Array4sizeEv(ptr noundef nonnull align 8 dereferenceable(16) %0) #1 comdat align 2 {
  %2 = alloca ptr, align 8
  store ptr %0, ptr %2, align 8
  %3 = load ptr, ptr %2, align 8
  %4 = getelementptr inbounds nuw %"class.llvm::LiveIntervalUnion::Array", ptr %3, i32 0, i32 0
  %5 = load i32, ptr %4, align 8
  ret i32 %5
}

; Function Attrs: mustprogress nounwind uwtable
define dso_local void @_ZN4llvm13LiveRegMatrix13releaseMemoryEv(ptr noundef nonnull align 8 dereferenceable(296) %0) unnamed_addr #1 align 2 {
  %2 = alloca ptr, align 8
  %3 = alloca i32, align 4
  %4 = alloca i32, align 4
  store ptr %0, ptr %2, align 8
  %5 = load ptr, ptr %2, align 8
  store i32 0, ptr %3, align 4
  %6 = getelementptr inbounds nuw %"class.llvm::LiveRegMatrix", ptr %5, i32 0, i32 6
  %7 = call noundef i32 @_ZNK4llvm17LiveIntervalUnion5Array4sizeEv(ptr noundef nonnull align 8 dereferenceable(16) %6)
  store i32 %7, ptr %4, align 4
  br label %8

8:                                                ; preds = %16, %1
  %9 = load i32, ptr %3, align 4
  %10 = load i32, ptr %4, align 4
  %11 = icmp ne i32 %9, %10
  br i1 %11, label %12, label %19

12:                                               ; preds = %8
  %13 = getelementptr inbounds nuw %"class.llvm::LiveRegMatrix", ptr %5, i32 0, i32 6
  %14 = load i32, ptr %3, align 4
  %15 = call noundef nonnull align 8 dereferenceable(216) ptr @_ZN4llvm17LiveIntervalUnion5ArrayixEj(ptr noundef nonnull align 8 dereferenceable(16) %13, i32 noundef %14)
  call void @_ZN4llvm17LiveIntervalUnion5clearEv(ptr noundef nonnull align 8 dereferenceable(216) %15)
  br label %16

16:                                               ; preds = %12
  %17 = load i32, ptr %3, align 4
  %18 = add i32 %17, 1
  store i32 %18, ptr %3, align 4
  br label %8, !llvm.loop !4

19:                                               ; preds = %8
  ret void
}