; Function Attrs: mustprogress nounwind uwtable
define dso_local void @_ZN4llvm13LiveRegMatrix13releaseMemoryEv(ptr nocapture noundef nonnull readonly align 8 dereferenceable(296) %0) unnamed_addr #0 align 2 {
  %2 = getelementptr inbounds nuw i8, ptr %0, i64 192
  %3 = load i32, ptr %2, align 8
  %.not4 = icmp eq i32 %3, 0
  br i1 %.not4, label %._crit_edge, label %.lr.ph

.lr.ph:                                           ; preds = %1
  %4 = getelementptr inbounds i8, ptr %0, i64 200
  %5 = zext i32 %3 to i64
  br label %6

6:                                                ; preds = %.lr.ph, %_ZN4llvm17LiveIntervalUnion5clearEv.exit
  %indvars.iv = phi i64 [ 0, %.lr.ph ], [ %indvars.iv.next, %_ZN4llvm17LiveIntervalUnion5clearEv.exit ]
  %7 = load ptr, ptr %4, align 8
  %8 = getelementptr inbounds %"class.llvm::LiveIntervalUnion", ptr %7, i64 %indvars.iv
  %9 = getelementptr inbounds i8, ptr %8, i64 200
  %10 = load i32, ptr %9, align 8
  %.not.i.i = icmp eq i32 %10, 0
  br i1 %.not.i.i, label %_ZN4llvm17LiveIntervalUnion5clearEv.exit, label %11

11:                                               ; preds = %6
  %12 = getelementptr inbounds nuw i8, ptr %8, i64 8
  tail call void @_ZN4llvm11IntervalMapINS_9SlotIndexEPKNS_12LiveIntervalELj8ENS_15IntervalMapInfoIS1_EEE10visitNodesEMS7_FvNS_15IntervalMapImpl7NodeRefEjE(ptr noundef nonnull align 8 dereferenceable(208) %12, i64 ptrtoint (ptr @_ZN4llvm11IntervalMapINS_9SlotIndexEPKNS_12LiveIntervalELj8ENS_15IntervalMapInfoIS1_EEE10deleteNodeENS_15IntervalMapImpl7NodeRefEj to i64), i64 0)
  tail call void @llvm.memset.p0.i64(ptr noundef nonnull align 8 dereferenceable(196) %12, i8 0, i64 196, i1 false)
  br label %_ZN4llvm17LiveIntervalUnion5clearEv.exit

_ZN4llvm17LiveIntervalUnion5clearEv.exit:         ; preds = %6, %11
  %13 = getelementptr inbounds i8, ptr %8, i64 204
  store i32 0, ptr %13, align 4
  %14 = load i32, ptr %8, align 8
  %15 = add i32 %14, 1
  store i32 %15, ptr %8, align 8
  %indvars.iv.next = add nuw nsw i64 %indvars.iv, 1
  %.not = icmp eq i64 %indvars.iv.next, %5
  br i1 %.not, label %._crit_edge, label %6, !llvm.loop !4

._crit_edge:                                      ; preds = %_ZN4llvm17LiveIntervalUnion5clearEv.exit, %1
  ret void
}